target datalayout = "e-m:e-p270:32:32-p271:32:32-p272:64:64-i64:64-i128:128-f80:128-n8:16:32:64-S128"
target triple = "x86_64-pc-linux-gnu"

%struct.archive_read = type { %struct.archive, ptr, i32, i64, i64, %struct.archive_read_client, [16 x %struct.archive_read_filter_bidder], ptr, i32, i64, i32, i32, [16 x %struct.archive_format_descriptor], ptr, ptr, ptr, %struct.anon }
%struct.archive = type { i32, i32, ptr, i32, ptr, i32, i32, ptr, %struct.archive_string, ptr, i32, i32, ptr, ptr, i64, i64, i64, i8, i64 }
%struct.archive_string = type { ptr, i64, i64 }
%struct.archive_read_client = type { ptr, ptr, ptr, ptr, ptr, ptr, i32, i32, i64, ptr }
%struct.archive_read_filter_bidder = type { ptr, ptr, ptr }
%struct.archive_format_descriptor = type { ptr, ptr, ptr, ptr, ptr, ptr, ptr, ptr, ptr, ptr, ptr }
%struct.anon = type { ptr, ptr, i32, ptr, ptr }
%struct.mtree = type { %struct.archive_string, i64, ptr, i64, i32, i32, ptr, ptr, ptr, %struct.archive_rb_tree, %struct.archive_string, %struct.archive_string, ptr, %struct.archive_rb_tree, i64, i8 }
%struct.archive_rb_tree = type { ptr, ptr }
%struct.mtree_entry = type { %struct.archive_rb_node, ptr, ptr, ptr, ptr, i8, i8 }
%struct.archive_rb_node = type { [2 x ptr], i64 }
%struct.mtree_option = type { ptr, ptr }

; Function Attrs: nounwind uwtable
define internal void @free_options(ptr noundef %0) #0 {
  %2 = alloca ptr, align 8
  %3 = alloca ptr, align 8
  store ptr %0, ptr %2, align 8
  br label %4

4:                                                ; preds = %15, %1
  %5 = load ptr, ptr %2, align 8
  %6 = icmp ne ptr %5, null
  br i1 %6, label %7, label %17

7:                                                ; preds = %4
  %8 = load ptr, ptr %2, align 8
  %9 = getelementptr inbounds %struct.mtree_option, ptr %8, i32 0, i32 0
  %10 = load ptr, ptr %9, align 8
  store ptr %10, ptr %3, align 8
  %11 = load ptr, ptr %2, align 8
  %12 = getelementptr inbounds %struct.mtree_option, ptr %11, i32 0, i32 1
  %13 = load ptr, ptr %12, align 8
  call void @free(ptr noundef %13) #10
  %14 = load ptr, ptr %2, align 8
  call void @free(ptr noundef %14) #10
  br label %15

15:                                               ; preds = %7
  %16 = load ptr, ptr %3, align 8
  store ptr %16, ptr %2, align 8
  br label %4, !llvm.loop !8

17:                                               ; preds = %4
  ret void
}

; Function Attrs: nounwind uwtable
define internal i32 @cleanup(ptr noundef %0) #0 {
  %2 = alloca ptr, align 8
  %3 = alloca ptr, align 8
  %4 = alloca ptr, align 8
  %5 = alloca ptr, align 8
  store ptr %0, ptr %2, align 8
  %6 = load ptr, ptr %2, align 8
  %7 = getelementptr inbounds %struct.archive_read, ptr %6, i32 0, i32 13
  %8 = load ptr, ptr %7, align 8
  %9 = getelementptr inbounds %struct.archive_format_descriptor, ptr %8, i32 0, i32 0
  %10 = load ptr, ptr %9, align 8
  store ptr %10, ptr %3, align 8
  %11 = load ptr, ptr %3, align 8
  %12 = getelementptr inbounds %struct.mtree, ptr %11, i32 0, i32 7
  %13 = load ptr, ptr %12, align 8
  store ptr %13, ptr %4, align 8
  br label %14

14:                                               ; preds = %17, %1
  %15 = load ptr, ptr %4, align 8
  %16 = icmp ne ptr %15, null
  br i1 %16, label %17, label %29

17:                                               ; preds = %14
  %18 = load ptr, ptr %4, align 8
  %19 = getelementptr inbounds %struct.mtree_entry, ptr %18, i32 0, i32 2
  %20 = load ptr, ptr %19, align 8
  store ptr %20, ptr %5, align 8
  %21 = load ptr, ptr %4, align 8
  %22 = getelementptr inbounds %struct.mtree_entry, ptr %21, i32 0, i32 4
  %23 = load ptr, ptr %22, align 8
  call void @free(ptr noundef %23) #10
  %24 = load ptr, ptr %4, align 8
  %25 = getelementptr inbounds %struct.mtree_entry, ptr %24, i32 0, i32 3
  %26 = load ptr, ptr %25, align 8
  call void @free_options(ptr noundef %26)
  %27 = load ptr, ptr %4, align 8
  call void @free(ptr noundef %27) #10
  %28 = load ptr, ptr %5, align 8
  store ptr %28, ptr %4, align 8
  br label %14, !llvm.loop !7

29:                                               ; preds = %14
  %30 = load ptr, ptr %3, align 8
  %31 = getelementptr inbounds %struct.mtree, ptr %30, i32 0, i32 0
  call void @archive_string_free(ptr noundef %31)
  %32 = load ptr, ptr %3, align 8
  %33 = getelementptr inbounds %struct.mtree, ptr %32, i32 0, i32 10
  call void @archive_string_free(ptr noundef %33)
  %34 = load ptr, ptr %3, align 8
  %35 = getelementptr inbounds %struct.mtree, ptr %34, i32 0, i32 11
  call void @archive_string_free(ptr noundef %35)
  %36 = load ptr, ptr %3, align 8
  %37 = getelementptr inbounds %struct.mtree, ptr %36, i32 0, i32 12
  %38 = load ptr, ptr %37, align 8
  call void @archive_entry_linkresolver_free(ptr noundef %38)
  %39 = load ptr, ptr %3, align 8
  %40 = getelementptr inbounds %struct.mtree, ptr %39, i32 0, i32 2
  %41 = load ptr, ptr %40, align 8
  call void @free(ptr noundef %41) #10
  %42 = load ptr, ptr %3, align 8
  call void @free(ptr noundef %42) #10
  %43 = load ptr, ptr %2, align 8
  %44 = getelementptr inbounds %struct.archive_read, ptr %43, i32 0, i32 13
  %45 = load ptr, ptr %44, align 8
  %46 = getelementptr inbounds %struct.archive_format_descriptor, ptr %45, i32 0, i32 0
  store ptr null, ptr %46, align 8
  ret i32 0
}