; Function Attrs: nounwind uwtable
define internal noundef i32 @cleanup(ptr noundef readonly captures(none) %0) #0 {
  %2 = getelementptr inbounds nuw i8, ptr %0, i64 2072
  %3 = load ptr, ptr %2, align 8
  %4 = load ptr, ptr %3, align 8
  %5 = getelementptr inbounds nuw i8, ptr %4, i64 64
  %6 = load ptr, ptr %5, align 8
  %.not15 = icmp eq ptr %6, null
  br i1 %.not15, label %._crit_edge, label %.lr.ph

.lr.ph:                                           ; preds = %1, %free_options.exit
  %.016 = phi ptr [ %8, %free_options.exit ], [ %6, %1 ]
  %7 = getelementptr inbounds nuw i8, ptr %.016, i64 32
  %8 = load ptr, ptr %7, align 8
  %9 = getelementptr inbounds nuw i8, ptr %.016, i64 48
  %10 = load ptr, ptr %9, align 8
  tail call void @free(ptr noundef %10) #19
  %11 = getelementptr inbounds nuw i8, ptr %.016, i64 40
  %12 = load ptr, ptr %11, align 8
  %.not5.i = icmp eq ptr %12, null
  br i1 %.not5.i, label %free_options.exit, label %.lr.ph.i

.lr.ph.i:                                         ; preds = %.lr.ph, %.lr.ph.i
  %.06.i = phi ptr [ %13, %.lr.ph.i ], [ %12, %.lr.ph ]
  %13 = load ptr, ptr %.06.i, align 8
  %14 = getelementptr inbounds nuw i8, ptr %.06.i, i64 8
  %15 = load ptr, ptr %14, align 8
  tail call void @free(ptr noundef %15) #19
  tail call void @free(ptr noundef nonnull %.06.i) #19
  %.not.i = icmp eq ptr %13, null
  br i1 %.not.i, label %free_options.exit, label %.lr.ph.i, !llvm.loop !7

free_options.exit:                                ; preds = %.lr.ph.i, %.lr.ph
  tail call void @free(ptr noundef %.016) #19
  %.not = icmp eq ptr %8, null
  br i1 %.not, label %._crit_edge, label %.lr.ph, !llvm.loop !17

._crit_edge:                                      ; preds = %free_options.exit, %1
  tail call void @archive_string_free(ptr noundef %4) #19
  %16 = getelementptr inbounds nuw i8, ptr %4, i64 96
  tail call void @archive_string_free(ptr noundef nonnull %16) #19
  %17 = getelementptr inbounds nuw i8, ptr %4, i64 120
  tail call void @archive_string_free(ptr noundef nonnull %17) #19
  %18 = getelementptr inbounds nuw i8, ptr %4, i64 144
  %19 = load ptr, ptr %18, align 8
  tail call void @archive_entry_linkresolver_free(ptr noundef %19) #19
  %20 = getelementptr inbounds nuw i8, ptr %4, i64 32
  %21 = load ptr, ptr %20, align 8
  tail call void @free(ptr noundef %21) #19
  tail call void @free(ptr noundef %4) #19
  %22 = load ptr, ptr %2, align 8
  store ptr null, ptr %22, align 8
  ret i32 0
}